target datalayout = "e-m:e-p270:32:32-p271:32:32-p272:64:64-i64:64-i128:128-f80:128-n8:16:32:64-S128"
target triple = "x86_64-pc-linux-gnu"

%struct.dirent = type { i64, i64, i16, i8, [256 x i8] }

@wal_segment_size = dso_local global i32 16777216, align 4
@.str.14 = private unnamed_addr constant [7 x i8] c"xlog.c\00", align 1
@.str.22 = private unnamed_addr constant [7 x i8] c"pg_wal\00", align 1
@.str.23 = private unnamed_addr constant [57 x i8] c"attempting to remove WAL segments newer than log file %s\00", align 1
@__func__.RemoveNonParentXlogFiles = private unnamed_addr constant [25 x i8] c"RemoveNonParentXlogFiles\00", align 1
@.str.118 = private unnamed_addr constant [13 x i8] c"%08X%08X%08X\00", align 1
@.str.119 = private unnamed_addr constant [17 x i8] c"0123456789ABCDEF\00", align 1

; Function Attrs: inlinehint nounwind uwtable
define internal zeroext i1 @IsXLogFileName(ptr noundef %0) #6 {
  %2 = alloca ptr, align 8
  store ptr %0, ptr %2, align 8
  %3 = load ptr, ptr %2, align 8
  %4 = call i64 @strlen(ptr noundef %3) #19
  %5 = icmp eq i64 %4, 24
  br i1 %5, label %6, label %10

6:                                                ; preds = %1
  %7 = load ptr, ptr %2, align 8
  %8 = call i64 @strspn(ptr noundef %7, ptr noundef @.str.119) #19
  %9 = icmp eq i64 %8, 24
  br label %10

10:                                               ; preds = %6, %1
  %11 = phi i1 [ false, %1 ], [ %9, %6 ]
  ret i1 %11
}

; Function Attrs: inlinehint nounwind uwtable
define internal void @XLogFileName(ptr noundef %0, i32 noundef %1, i64 noundef %2, i32 noundef %3) #6 {
  %5 = alloca ptr, align 8
  %6 = alloca i32, align 4
  %7 = alloca i64, align 8
  %8 = alloca i32, align 4
  store ptr %0, ptr %5, align 8
  store i32 %1, ptr %6, align 4
  store i64 %2, ptr %7, align 8
  store i32 %3, ptr %8, align 4
  %9 = load ptr, ptr %5, align 8
  %10 = load i32, ptr %6, align 4
  %11 = load i64, ptr %7, align 8
  %12 = load i32, ptr %8, align 4
  %13 = sext i32 %12 to i64
  %14 = udiv i64 4294967296, %13
  %15 = udiv i64 %11, %14
  %16 = trunc i64 %15 to i32
  %17 = load i64, ptr %7, align 8
  %18 = load i32, ptr %8, align 4
  %19 = sext i32 %18 to i64
  %20 = udiv i64 4294967296, %19
  %21 = urem i64 %17, %20
  %22 = trunc i64 %21 to i32
  %23 = call i32 (ptr, i64, ptr, ...) @pg_snprintf(ptr noundef %9, i64 noundef 64, ptr noundef @.str.118, i32 noundef %10, i32 noundef %16, i32 noundef %22)
  ret void
}

; Function Attrs: nounwind uwtable
define dso_local void @RemoveNonParentXlogFiles(i64 noundef %0, i32 noundef %1) #0 {
  %3 = alloca i64, align 8
  %4 = alloca i32, align 4
  %5 = alloca ptr, align 8
  %6 = alloca ptr, align 8
  %7 = alloca [64 x i8], align 16
  %8 = alloca i64, align 8
  %9 = alloca i64, align 8
  %10 = alloca i64, align 8
  store i64 %0, ptr %3, align 8
  store i32 %1, ptr %4, align 4
  call void @llvm.lifetime.start.p0(i64 8, ptr %5) #16
  call void @llvm.lifetime.start.p0(i64 8, ptr %6) #16
  call void @llvm.lifetime.start.p0(i64 64, ptr %7) #16
  call void @llvm.lifetime.start.p0(i64 8, ptr %8) #16
  call void @llvm.lifetime.start.p0(i64 8, ptr %9) #16
  call void @llvm.lifetime.start.p0(i64 8, ptr %10) #16
  %11 = load i64, ptr %3, align 8
  %12 = sub i64 %11, 1
  %13 = load i32, ptr @wal_segment_size, align 4
  %14 = sext i32 %13 to i64
  %15 = udiv i64 %12, %14
  store i64 %15, ptr %9, align 8
  %16 = load i64, ptr %3, align 8
  %17 = load i32, ptr @wal_segment_size, align 4
  %18 = sext i32 %17 to i64
  %19 = udiv i64 %16, %18
  store i64 %19, ptr %8, align 8
  %20 = load i64, ptr %8, align 8
  %21 = add i64 %20, 10
  store i64 %21, ptr %10, align 8
  %22 = getelementptr inbounds [64 x i8], ptr %7, i64 0, i64 0
  %23 = load i32, ptr %4, align 4
  %24 = load i64, ptr %9, align 8
  %25 = load i32, ptr @wal_segment_size, align 4
  call void @XLogFileName(ptr noundef %22, i32 noundef %23, i64 noundef %24, i32 noundef %25)
  br label %26

26:                                               ; preds = %2
  br i1 false, label %27, label %29

27:                                               ; preds = %26
  %28 = call zeroext i1 @errstart_cold(i32 noundef 13, ptr noundef null) #17
  br i1 %28, label %31, label %34

29:                                               ; preds = %26
  %30 = call zeroext i1 @errstart(i32 noundef 13, ptr noundef null)
  br i1 %30, label %31, label %34

31:                                               ; preds = %29, %27
  %32 = getelementptr inbounds [64 x i8], ptr %7, i64 0, i64 0
  %33 = call i32 (ptr, ...) @errmsg_internal(ptr noundef @.str.23, ptr noundef %32)
  call void @errfinish(ptr noundef @.str.14, i32 noundef 3984, ptr noundef @__func__.RemoveNonParentXlogFiles)
  br label %34

34:                                               ; preds = %31, %29, %27
  br label %35

35:                                               ; preds = %34
  br label %36

36:                                               ; preds = %35
  %37 = call ptr @AllocateDir(ptr noundef @.str.22)
  store ptr %37, ptr %5, align 8
  br label %38

38:                                               ; preds = %74, %47, %36
  %39 = load ptr, ptr %5, align 8
  %40 = call ptr @ReadDir(ptr noundef %39, ptr noundef @.str.22)
  store ptr %40, ptr %6, align 8
  %41 = icmp ne ptr %40, null
  br i1 %41, label %42, label %75

42:                                               ; preds = %38
  %43 = load ptr, ptr %6, align 8
  %44 = getelementptr inbounds nuw %struct.dirent, ptr %43, i32 0, i32 4
  %45 = getelementptr inbounds [256 x i8], ptr %44, i64 0, i64 0
  %46 = call zeroext i1 @IsXLogFileName(ptr noundef %45)
  br i1 %46, label %48, label %47

47:                                               ; preds = %42
  br label %38, !llvm.loop !51

48:                                               ; preds = %42
  %49 = load ptr, ptr %6, align 8
  %50 = getelementptr inbounds nuw %struct.dirent, ptr %49, i32 0, i32 4
  %51 = getelementptr inbounds [256 x i8], ptr %50, i64 0, i64 0
  %52 = getelementptr inbounds [64 x i8], ptr %7, i64 0, i64 0
  %53 = call i32 @strncmp(ptr noundef %51, ptr noundef %52, i64 noundef 8) #19
  %54 = icmp slt i32 %53, 0
  br i1 %54, label %55, label %74

55:                                               ; preds = %48
  %56 = load ptr, ptr %6, align 8
  %57 = getelementptr inbounds nuw %struct.dirent, ptr %56, i32 0, i32 4
  %58 = getelementptr inbounds [256 x i8], ptr %57, i64 0, i64 0
  %59 = getelementptr inbounds i8, ptr %58, i64 8
  %60 = getelementptr inbounds [64 x i8], ptr %7, i64 0, i64 0
  %61 = getelementptr inbounds i8, ptr %60, i64 8
  %62 = call i32 @strcmp(ptr noundef %59, ptr noundef %61) #19
  %63 = icmp sgt i32 %62, 0
  br i1 %63, label %64, label %74

64:                                               ; preds = %55
  %65 = load ptr, ptr %6, align 8
  %66 = getelementptr inbounds nuw %struct.dirent, ptr %65, i32 0, i32 4
  %67 = getelementptr inbounds [256 x i8], ptr %66, i64 0, i64 0
  %68 = call zeroext i1 @XLogArchiveIsReady(ptr noundef %67)
  br i1 %68, label %73, label %69

69:                                               ; preds = %64
  %70 = load ptr, ptr %6, align 8
  %71 = load i64, ptr %10, align 8
  %72 = load i32, ptr %4, align 4
  call void @RemoveXlogFile(ptr noundef %70, i64 noundef %71, ptr noundef %8, i32 noundef %72)
  br label %73

73:                                               ; preds = %69, %64
  br label %74

74:                                               ; preds = %73, %55, %48
  br label %38, !llvm.loop !51

75:                                               ; preds = %38
  %76 = load ptr, ptr %5, align 8
  %77 = call i32 @FreeDir(ptr noundef %76)
  call void @llvm.lifetime.end.p0(i64 8, ptr %10) #16
  call void @llvm.lifetime.end.p0(i64 8, ptr %9) #16
  call void @llvm.lifetime.end.p0(i64 8, ptr %8) #16
  call void @llvm.lifetime.end.p0(i64 64, ptr %7) #16
  call void @llvm.lifetime.end.p0(i64 8, ptr %6) #16
  call void @llvm.lifetime.end.p0(i64 8, ptr %5) #16
  ret void
}