; Function Attrs: nounwind uwtable
define dso_local void @RemoveNonParentXlogFiles(i64 noundef %0, i32 noundef %1) local_unnamed_addr #0 {
  %3 = alloca [64 x i8], align 16
  %4 = alloca i64, align 8
  call void @llvm.lifetime.start.p0(i64 64, ptr nonnull %3) #26
  call void @llvm.lifetime.start.p0(i64 8, ptr nonnull %4) #26
  %5 = add i64 %0, -1
  %6 = load i32, ptr @wal_segment_size, align 4
  %7 = sext i32 %6 to i64
  %8 = udiv i64 %5, %7
  %9 = udiv i64 %0, %7
  store i64 %9, ptr %4, align 8
  %10 = add i64 %9, 10
  %11 = udiv i64 4294967296, %7
  %12 = udiv i64 %8, %11
  %13 = trunc i64 %12 to i32
  %14 = urem i64 %8, %11
  %15 = trunc nuw i64 %14 to i32
  %16 = call i32 (ptr, i64, ptr, ...) @pg_snprintf(ptr noundef nonnull %3, i64 noundef 64, ptr noundef nonnull @.str.118, i32 noundef %1, i32 noundef %13, i32 noundef %15) #26
  %17 = call zeroext i1 @errstart(i32 noundef 13, ptr noundef null) #26
  br i1 %17, label %18, label %20

18:                                               ; preds = %2
  %19 = call i32 (ptr, ...) @errmsg_internal(ptr noundef nonnull @.str.23, ptr noundef nonnull %3) #26
  call void @errfinish(ptr noundef nonnull @.str.14, i32 noundef 3984, ptr noundef nonnull @__func__.RemoveNonParentXlogFiles) #26
  br label %20

20:                                               ; preds = %18, %2
  %21 = call ptr @AllocateDir(ptr noundef nonnull @.str.22) #26
  %22 = call ptr @ReadDir(ptr noundef %21, ptr noundef nonnull @.str.22) #26
  %.not12 = icmp eq ptr %22, null
  br i1 %.not12, label %IsXLogFileName.exit._crit_edge, label %.lr.ph

.lr.ph:                                           ; preds = %20
  %23 = getelementptr inbounds nuw i8, ptr %3, i64 8
  br label %24

24:                                               ; preds = %.lr.ph, %IsXLogFileName.exit.backedge
  %25 = phi ptr [ %22, %.lr.ph ], [ %42, %IsXLogFileName.exit.backedge ]
  %26 = getelementptr inbounds nuw i8, ptr %25, i64 19
  %27 = call i64 @strlen(ptr noundef nonnull readonly dereferenceable(1) %26) #29
  %28 = icmp eq i64 %27, 24
  br i1 %28, label %29, label %IsXLogFileName.exit.backedge

29:                                               ; preds = %24
  %30 = call i64 @strspn(ptr noundef nonnull readonly %26, ptr noundef nonnull @.str.119) #29
  %31 = icmp eq i64 %30, 24
  br i1 %31, label %32, label %IsXLogFileName.exit.backedge

32:                                               ; preds = %29
  %33 = call i32 @strncmp(ptr noundef nonnull dereferenceable(1) %26, ptr noundef nonnull dereferenceable(1) %3, i64 noundef 8) #29
  %34 = icmp slt i32 %33, 0
  br i1 %34, label %35, label %IsXLogFileName.exit.backedge

35:                                               ; preds = %32
  %36 = getelementptr inbounds nuw i8, ptr %25, i64 27
  %37 = call i32 @strcmp(ptr noundef nonnull dereferenceable(1) %36, ptr noundef nonnull dereferenceable(1) %23) #29
  %38 = icmp sgt i32 %37, 0
  br i1 %38, label %39, label %IsXLogFileName.exit.backedge

39:                                               ; preds = %35
  %40 = call zeroext i1 @XLogArchiveIsReady(ptr noundef nonnull %26) #26
  br i1 %40, label %IsXLogFileName.exit.backedge, label %41

41:                                               ; preds = %39
  call fastcc void @RemoveXlogFile(ptr noundef %25, i64 noundef %10, ptr noundef %4, i32 noundef %1)
  br label %IsXLogFileName.exit.backedge

IsXLogFileName.exit.backedge:                     ; preds = %32, %35, %41, %39, %29, %24
  %42 = call ptr @ReadDir(ptr noundef %21, ptr noundef nonnull @.str.22) #26
  %.not = icmp eq ptr %42, null
  br i1 %.not, label %IsXLogFileName.exit._crit_edge, label %24, !llvm.loop !55

IsXLogFileName.exit._crit_edge:                   ; preds = %IsXLogFileName.exit.backedge, %20
  %43 = call i32 @FreeDir(ptr noundef %21) #26
  call void @llvm.lifetime.end.p0(i64 8, ptr nonnull %4) #26
  call void @llvm.lifetime.end.p0(i64 64, ptr nonnull %3) #26
  ret void
}